; Function Attrs: mustprogress nounwind uwtable
define dso_local void @_ZN13ArrayResourceD0Ev(ptr noundef nonnull align 8 dereferenceable(80) initializes((0, 8)) %0) unnamed_addr #3 align 2 personality ptr @__gxx_personality_v0 {
  store ptr getelementptr inbounds nuw inrange(-16, 64) (i8, ptr @_ZTV17ContainerResource, i64 16), ptr %0, align 8, !tbaa !9
  %2 = getelementptr inbounds nuw i8, ptr %0, i64 64
  %3 = load ptr, ptr %2, align 8, !tbaa !38
  %.not5.i = icmp eq ptr %3, null
  br i1 %.not5.i, label %._crit_edge.i, label %.lr.ph.i

.lr.ph.i:                                         ; preds = %1, %.lr.ph.i
  %.06.i = phi ptr [ %5, %.lr.ph.i ], [ %3, %1 ]
  %4 = getelementptr inbounds nuw i8, ptr %.06.i, i64 32
  %5 = load ptr, ptr %4, align 8, !tbaa !19
  %6 = load ptr, ptr %.06.i, align 8, !tbaa !9
  %7 = getelementptr inbounds nuw i8, ptr %6, i64 8
  %8 = load ptr, ptr %7, align 8
  tail call void %8(ptr noundef nonnull align 8 dereferenceable(56) %.06.i) #34
  %.not.i = icmp eq ptr %5, null
  br i1 %.not.i, label %._crit_edge.i, label %.lr.ph.i, !llvm.loop !40

._crit_edge.i:                                    ; preds = %.lr.ph.i, %1
  store ptr getelementptr inbounds nuw inrange(-16, 64) (i8, ptr @_ZTV9SResource, i64 16), ptr %0, align 8, !tbaa !9
  %9 = getelementptr inbounds nuw i8, ptr %0, i64 40
  invoke void @ustr_deinit(ptr noundef nonnull %9)
          to label %_ZN17ContainerResourceD2Ev.exit unwind label %10

10:                                               ; preds = %._crit_edge.i
  %11 = landingpad { ptr, i32 }
          catch ptr null
  %12 = extractvalue { ptr, i32 } %11, 0
  tail call void @__clang_call_terminate(ptr %12) #31
  unreachable

_ZN17ContainerResourceD2Ev.exit:                  ; preds = %._crit_edge.i
  tail call void @_ZdlPvm(ptr noundef nonnull %0, i64 noundef 80) #35
  ret void
}